; Function Attrs: mustprogress nounwind uwtable
define dso_local noundef zeroext i1 @_ZN4llvm7IRMover17StructTypeKeyInfo7isEqualEPKNS_10StructTypeES4_(ptr noundef %0, ptr noundef %1) local_unnamed_addr #1 align 2 {
  %3 = alloca %"struct.llvm::IRMover::StructTypeKeyInfo::KeyTy", align 8
  %4 = alloca %"struct.llvm::IRMover::StructTypeKeyInfo::KeyTy", align 8
  %magicptr = ptrtoint ptr %1 to i64
  switch i64 %magicptr, label %7 [
    i64 -4096, label %5
    i64 -8192, label %5
  ]

5:                                                ; preds = %2, %2
  %6 = icmp eq ptr %0, %1
  br label %_ZNK4llvm7IRMover17StructTypeKeyInfo5KeyTyeqERKS2_.exit

7:                                                ; preds = %2
  call void @_ZN4llvm7IRMover17StructTypeKeyInfo5KeyTyC1EPKNS_10StructTypeE(ptr noundef nonnull align 8 dereferenceable(17) %3, ptr noundef %0) #18
  call void @_ZN4llvm7IRMover17StructTypeKeyInfo5KeyTyC1EPKNS_10StructTypeE(ptr noundef nonnull align 8 dereferenceable(17) %4, ptr noundef %1) #18
  %8 = getelementptr inbounds nuw i8, ptr %3, i64 16
  %9 = load i8, ptr %8, align 8
  %10 = getelementptr inbounds nuw i8, ptr %4, i64 16
  %11 = load i8, ptr %10, align 8
  %12 = xor i8 %11, %9
  %13 = and i8 %12, 1
  %14 = icmp eq i8 %13, 0
  br i1 %14, label %15, label %_ZNK4llvm7IRMover17StructTypeKeyInfo5KeyTyeqERKS2_.exit

15:                                               ; preds = %7
  %.sroa.01.0.copyload.i = load ptr, ptr %3, align 8
  %.sroa.22.0..sroa_idx.i = getelementptr inbounds i8, ptr %3, i64 8
  %.sroa.22.0.copyload.i = load i64, ptr %.sroa.22.0..sroa_idx.i, align 8
  %.sroa.0.0.copyload.i = load ptr, ptr %4, align 8
  %.sroa.2.0..sroa_idx.i = getelementptr inbounds i8, ptr %4, i64 8
  %.sroa.2.0.copyload.i = load i64, ptr %.sroa.2.0..sroa_idx.i, align 8
  %.not.i.i.i = icmp eq i64 %.sroa.22.0.copyload.i, %.sroa.2.0.copyload.i
  br i1 %.not.i.i.i, label %16, label %_ZNK4llvm7IRMover17StructTypeKeyInfo5KeyTyeqERKS2_.exit

16:                                               ; preds = %15
  %.not.i.i.i.i.i.i.i = icmp eq i64 %.sroa.22.0.copyload.i, 0
  br i1 %.not.i.i.i.i.i.i.i, label %_ZNK4llvm7IRMover17StructTypeKeyInfo5KeyTyeqERKS2_.exit, label %17

17:                                               ; preds = %16
  %.idx.i.i.i = shl nsw i64 %.sroa.22.0.copyload.i, 3
  %bcmp.i.i.i.i.i.i.i = call i32 @bcmp(ptr %.sroa.01.0.copyload.i, ptr %.sroa.0.0.copyload.i, i64 %.idx.i.i.i)
  %.not7.i.i.i.i.i.i.i = icmp eq i32 %bcmp.i.i.i.i.i.i.i, 0
  br label %_ZNK4llvm7IRMover17StructTypeKeyInfo5KeyTyeqERKS2_.exit

_ZNK4llvm7IRMover17StructTypeKeyInfo5KeyTyeqERKS2_.exit: ; preds = %17, %16, %15, %7, %5
  %.0 = phi i1 [ %6, %5 ], [ false, %7 ], [ false, %15 ], [ %.not7.i.i.i.i.i.i.i, %17 ], [ true, %16 ]
  ret i1 %.0
}